target datalayout = "e-m:e-p270:32:32-p271:32:32-p272:64:64-i64:64-i128:128-f80:128-n8:16:32:64-S128"
target triple = "x86_64-unknown-linux-gnu"

@_mi_numa_node_count = hidden global i64 0, align 8
@.str.5 = private unnamed_addr constant [24 x i8] c"using %zd numa regions\0A\00", align 1

; Function Attrs: nounwind uwtable
define hidden i64 @_mi_os_numa_node_count_get() #0 {
entry:
  %count = alloca i64, align 8
  %atomic-temp = alloca i64, align 8
  %ncount = alloca i64, align 8
  %.atomictmp = alloca i64, align 8
  %0 = load atomic i64, ptr @_mi_numa_node_count acquire, align 8
  store i64 %0, ptr %atomic-temp, align 8
  %1 = load i64, ptr %atomic-temp, align 8
  store i64 %1, ptr %count, align 8
  %2 = load i64, ptr %count, align 8
  %cmp = icmp ule i64 %2, 0
  br i1 %cmp, label %if.then, label %if.end7

if.then:                                          ; preds = %entry
  %call = call i64 @mi_option_get(i32 noundef 16) #5
  store i64 %call, ptr %ncount, align 8
  %3 = load i64, ptr %ncount, align 8
  %cmp1 = icmp sgt i64 %3, 0
  br i1 %cmp1, label %if.then2, label %if.else

if.then2:                                         ; preds = %if.then
  %4 = load i64, ptr %ncount, align 8
  store i64 %4, ptr %count, align 8
  br label %if.end6

if.else:                                          ; preds = %if.then
  %call3 = call i64 @_mi_prim_numa_node_count() #5
  store i64 %call3, ptr %count, align 8
  %5 = load i64, ptr %count, align 8
  %cmp4 = icmp eq i64 %5, 0
  br i1 %cmp4, label %if.then5, label %if.end

if.then5:                                         ; preds = %if.else
  store i64 1, ptr %count, align 8
  br label %if.end

if.end:                                           ; preds = %if.then5, %if.else
  br label %if.end6

if.end6:                                          ; preds = %if.end, %if.then2
  %6 = load i64, ptr %count, align 8
  store i64 %6, ptr %.atomictmp, align 8
  %7 = load i64, ptr %.atomictmp, align 8
  store atomic i64 %7, ptr @_mi_numa_node_count release, align 8
  %8 = load i64, ptr %count, align 8
  call void (ptr, ...) @_mi_verbose_message(ptr noundef @.str.5, i64 noundef %8) #5
  br label %if.end7

if.end7:                                          ; preds = %if.end6, %entry
  %9 = load i64, ptr %count, align 8
  ret i64 %9
}

; Function Attrs: nounwind uwtable
define internal i64 @_mi_os_numa_node_count() #0 {
entry:
  %retval = alloca i64, align 8
  %count = alloca i64, align 8
  %atomic-temp = alloca i64, align 8
  %0 = load atomic i64, ptr @_mi_numa_node_count monotonic, align 8
  store i64 %0, ptr %atomic-temp, align 8
  %1 = load i64, ptr %atomic-temp, align 8
  store i64 %1, ptr %count, align 8
  %2 = load i64, ptr %count, align 8
  %cmp = icmp ugt i64 %2, 0
  %lnot = xor i1 %cmp, true
  %lnot1 = xor i1 %lnot, true
  %lnot.ext = zext i1 %lnot1 to i32
  %conv = sext i32 %lnot.ext to i64
  %tobool = icmp ne i64 %conv, 0
  br i1 %tobool, label %if.then, label %if.else

if.then:                                          ; preds = %entry
  %3 = load i64, ptr %count, align 8
  store i64 %3, ptr %retval, align 8
  br label %return

if.else:                                          ; preds = %entry
  %call = call i64 @_mi_os_numa_node_count_get() #5
  store i64 %call, ptr %retval, align 8
  br label %return

return:                                           ; preds = %if.else, %if.then
  %4 = load i64, ptr %retval, align 8
  ret i64 %4
}

; Function Attrs: nounwind uwtable
define hidden i32 @_mi_os_numa_node_get(ptr noundef %tld) #0 {
entry:
  %retval = alloca i32, align 4
  %tld.addr = alloca ptr, align 8
  %numa_count = alloca i64, align 8
  %numa_node = alloca i64, align 8
  store ptr %tld, ptr %tld.addr, align 8
  %call = call i64 @_mi_os_numa_node_count() #5
  store i64 %call, ptr %numa_count, align 8
  %0 = load i64, ptr %numa_count, align 8
  %cmp = icmp ule i64 %0, 1
  br i1 %cmp, label %if.then, label %if.end

if.then:                                          ; preds = %entry
  store i32 0, ptr %retval, align 4
  br label %return

if.end:                                           ; preds = %entry
  %call1 = call i64 @_mi_prim_numa_node() #5
  store i64 %call1, ptr %numa_node, align 8
  %1 = load i64, ptr %numa_node, align 8
  %2 = load i64, ptr %numa_count, align 8
  %cmp2 = icmp uge i64 %1, %2
  br i1 %cmp2, label %if.then3, label %if.end4

if.then3:                                         ; preds = %if.end
  %3 = load i64, ptr %numa_node, align 8
  %4 = load i64, ptr %numa_count, align 8
  %rem = urem i64 %3, %4
  store i64 %rem, ptr %numa_node, align 8
  br label %if.end4

if.end4:                                          ; preds = %if.then3, %if.end
  %5 = load i64, ptr %numa_node, align 8
  %conv = trunc i64 %5 to i32
  store i32 %conv, ptr %retval, align 4
  br label %return

return:                                           ; preds = %if.end4, %if.then
  %6 = load i32, ptr %retval, align 4
  ret i32 %6
}