; Function Attrs: nounwind uwtable
define hidden i32 @_mi_os_numa_node_get(ptr noundef readnone captures(none) %tld) local_unnamed_addr #1 {
entry:
  %0 = load atomic i64, ptr @_mi_numa_node_count monotonic, align 8
  %cmp.not.i = icmp eq i64 %0, 0
  br i1 %cmp.not.i, label %if.else.i, label %_mi_os_numa_node_count.exit

if.else.i:                                        ; preds = %entry
  %1 = load atomic i64, ptr @_mi_numa_node_count acquire, align 8
  %cmp.i.i = icmp eq i64 %1, 0
  br i1 %cmp.i.i, label %if.then.i.i, label %_mi_os_numa_node_count.exit

if.then.i.i:                                      ; preds = %if.else.i
  %call.i.i = tail call i64 @mi_option_get(i32 noundef 16) #7
  %cmp1.i.i = icmp sgt i64 %call.i.i, 0
  br i1 %cmp1.i.i, label %if.end6.i.i, label %if.else.i.i

if.else.i.i:                                      ; preds = %if.then.i.i
  %call3.i.i = tail call i64 @_mi_prim_numa_node_count() #7
  %spec.store.select.i.i = tail call i64 @llvm.umax.i64(i64 %call3.i.i, i64 1)
  br label %if.end6.i.i

if.end6.i.i:                                      ; preds = %if.else.i.i, %if.then.i.i
  %count.1.i.i = phi i64 [ %spec.store.select.i.i, %if.else.i.i ], [ %call.i.i, %if.then.i.i ]
  store atomic i64 %count.1.i.i, ptr @_mi_numa_node_count release, align 8
  tail call void (ptr, ...) @_mi_verbose_message(ptr noundef nonnull @.str.5, i64 noundef %count.1.i.i) #7
  br label %_mi_os_numa_node_count.exit

_mi_os_numa_node_count.exit:                      ; preds = %entry, %if.else.i, %if.end6.i.i
  %retval.0.i = phi i64 [ %0, %entry ], [ %count.1.i.i, %if.end6.i.i ], [ %1, %if.else.i ]
  %cmp = icmp ult i64 %retval.0.i, 2
  br i1 %cmp, label %return, label %if.end

if.end:                                           ; preds = %_mi_os_numa_node_count.exit
  %call1 = tail call i64 @_mi_prim_numa_node() #7
  %cmp2.not = icmp ult i64 %call1, %retval.0.i
  br i1 %cmp2.not, label %if.end4, label %if.then3

if.then3:                                         ; preds = %if.end
  %rem = urem i64 %call1, %retval.0.i
  br label %if.end4

if.end4:                                          ; preds = %if.then3, %if.end
  %numa_node.0 = phi i64 [ %rem, %if.then3 ], [ %call1, %if.end ]
  %conv = trunc i64 %numa_node.0 to i32
  br label %return

return:                                           ; preds = %_mi_os_numa_node_count.exit, %if.end4
  %retval.0 = phi i32 [ %conv, %if.end4 ], [ 0, %_mi_os_numa_node_count.exit ]
  ret i32 %retval.0
}